   1               		.file	"main.c"
   2               	__SP_H__ = 0x3e
   3               	__SP_L__ = 0x3d
   4               	__SREG__ = 0x3f
   5               	__RAMPZ__ = 0x3b
   6               	__tmp_reg__ = 0
   7               	__zero_reg__ = 1
   8               		.text
   9               		.section	.text.USART_Transmit,"ax",@progbits
  11               	USART_Transmit:
  12               	/* prologue: function */
  13               	/* frame size = 0 */
  14               	/* stack size = 0 */
  15               	.L__stack_usage = 0
  16               	.L2:
  17 0000 9091 C000 		lds r25,192
  18 0004 95FF      		sbrs r25,5
  19 0006 00C0      		rjmp .L2
  20 0008 8093 C600 		sts 198,r24
  21               	/* epilogue start */
  22 000c 0895      		ret
  24               		.section	.text.USART_Receive,"ax",@progbits
  26               	USART_Receive:
  27               	/* prologue: function */
  28               	/* frame size = 0 */
  29               	/* stack size = 0 */
  30               	.L__stack_usage = 0
  31               	.L6:
  32 0000 8091 C000 		lds r24,192
  33 0004 85FF      		sbrs r24,5
  34 0006 00C0      		rjmp .L6
  35 0008 8091 C600 		lds r24,198
  36               	/* epilogue start */
  37 000c 0895      		ret
  39               		.section	.rodata.armedState.str1.1,"aMS",@progbits,1
  40               	.LC0:
  41 0000 3000      		.string	"0"
  42               	.LC1:
  43 0002 2575 0A00 		.string	"%u\n"
  44               	.LC2:
  45 0006 5469 6D65 		.string	"Timer started"
  45      7220 7374 
  45      6172 7465 
  45      6400 
  46               		.section	.text.armedState,"ax",@progbits
  47               	.global	armedState
  49               	armedState:
  50 0000 0F93      		push r16
  51 0002 1F93      		push r17
  52 0004 CF93      		push r28
  53 0006 DF93      		push r29
  54               	/* prologue: function */
  55               	/* frame size = 0 */
  56               	/* stack size = 4 */
  57               	.L__stack_usage = 4
  58 0008 C0E0      		ldi r28,lo8(.LC0)
  59 000a D0E0      		ldi r29,hi8(.LC0)
  60 000c 00E0      		ldi r16,lo8(.LC1)
  61 000e 10E0      		ldi r17,hi8(.LC1)
  62               	.L12:
  63 0010 2898      		cbi 0x5,0
  64 0012 CEBD      		out 0x2e,r28
  65               	.L10:
  66 0014 0DB4      		in __tmp_reg__,0x2d
  67 0016 07FE      		sbrs __tmp_reg__,7
  68 0018 00C0      		rjmp .L10
  69 001a DEB5      		in r29,0x2e
  70 001c 1F92      		push __zero_reg__
  71 001e DF93      		push r29
  72 0020 1F93      		push r17
  73 0022 0F93      		push r16
  74 0024 0E94 0000 		call printf
  75 0028 289A      		sbi 0x5,0
  76 002a 0F90      		pop __tmp_reg__
  77 002c 0F90      		pop __tmp_reg__
  78 002e 0F90      		pop __tmp_reg__
  79 0030 0F90      		pop __tmp_reg__
  80 0032 D430      		cpi r29,lo8(4)
  81 0034 01F0      		breq .L15
  82 0036 2FEF      		ldi r18,lo8(3199999)
  83 0038 83ED      		ldi r24,hi8(3199999)
  84 003a 90E3      		ldi r25,hlo8(3199999)
  85 003c 2150      	1:	subi r18,1
  86 003e 8040      		sbci r24,0
  87 0040 9040      		sbci r25,0
  88 0042 01F4      		brne 1b
  89 0044 00C0      		rjmp .
  90 0046 0000      		nop
  91 0048 00C0      		rjmp .L12
  92               	.L15:
  93 004a 6B9A      		sbi 0xd,3
  94               	/* #APP */
  95               	 ;  127 "main.c" 1
  96 004c 7894      		sei
  97               	 ;  0 "" 2
  98               	/* #NOAPP */
  99 004e 1092 9000 		sts 144,__zero_reg__
 100 0052 1092 9100 		sts 145,__zero_reg__
 101 0056 1092 9500 		sts 148+1,__zero_reg__
 102 005a 1092 9400 		sts 148,__zero_reg__
 103 005e 88E0      		ldi r24,lo8(8)
 104 0060 9DE3      		ldi r25,lo8(61)
 105 0062 9093 9900 		sts 152+1,r25
 106 0066 8093 9800 		sts 152,r24
 107 006a 8091 9100 		lds r24,145
 108 006e 8560      		ori r24,lo8(5)
 109 0070 8093 9100 		sts 145,r24
 110 0074 8091 7100 		lds r24,113
 111 0078 8260      		ori r24,lo8(2)
 112 007a 8093 7100 		sts 113,r24
 113 007e 8091 0201 		lds r24,258
 114 0082 8062      		ori r24,lo8(32)
 115 0084 8093 0201 		sts 258,r24
 116 0088 80E0      		ldi r24,lo8(.LC2)
 117 008a 90E0      		ldi r25,hi8(.LC2)
 118 008c 9F93      		push r25
 119 008e 8F93      		push r24
 120 0090 0E94 0000 		call printf
 121 0094 0F90      		pop __tmp_reg__
 122 0096 0F90      		pop __tmp_reg__
 123 0098 81E0      		ldi r24,lo8(1)
 124               	/* epilogue start */
 125 009a DF91      		pop r29
 126 009c CF91      		pop r28
 127 009e 1F91      		pop r17
 128 00a0 0F91      		pop r16
 129 00a2 0895      		ret
 131               		.section	.rodata.timerState.str1.1,"aMS",@progbits,1
 132               	.LC3:
 133 0000 2300      		.string	"#"
 134               	.LC4:
 135 0002 4B65 793A 		.string	"Key: %c\n"
 135      2025 630A 
 135      00
 136               		.section	.text.timerState,"ax",@progbits
 137               	.global	timerState
 139               	timerState:
 140               	/* prologue: function */
 141               	/* frame size = 0 */
 142               	/* stack size = 0 */
 143               	.L__stack_usage = 0
 144 0000 0E94 0000 		call KEYPAD_GetKey
 145 0004 8115      		cp r24, __zero_reg__
 146 0006 01F0      		breq .L17
 147 0008 9091 0201 		lds r25,258
 148 000c 9064      		ori r25,lo8(64)
 149 000e 9093 0201 		sts 258,r25
 150 0012 EFE1      		ldi r30,lo8(19999)
 151 0014 FEE4      		ldi r31,hi8(19999)
 152 0016 3197      	1:	sbiw r30,1
 153 0018 01F4      		brne 1b
 154 001a 00C0      		rjmp .
 155 001c 0000      		nop
 156 001e 9091 0201 		lds r25,258
 157 0022 9F7B      		andi r25,lo8(-65)
 158 0024 9093 0201 		sts 258,r25
 159 0028 2091 0000 		lds r18,inputIndex
 160 002c 3091 0000 		lds r19,inputIndex+1
 161 0030 8A32      		cpi r24,lo8(42)
 162 0032 01F4      		brne .L18
 163 0034 1216      		cp __zero_reg__,r18
 164 0036 1306      		cpc __zero_reg__,r19
 165 0038 04F4      		brge .L18
 166 003a 2150      		subi r18,1
 167 003c 3109      		sbc r19,__zero_reg__
 168 003e 3093 0000 		sts inputIndex+1,r19
 169 0042 2093 0000 		sts inputIndex,r18
 170               	.L17:
 171 0046 81E0      		ldi r24,lo8(1)
 172 0048 0895      		ret
 173               	.L18:
 174 004a 482F      		mov r20,r24
 175 004c 50E0      		ldi r21,0
 176 004e 2430      		cpi r18,4
 177 0050 3105      		cpc r19,__zero_reg__
 178 0052 01F4      		brne .L20
 179 0054 4050      		subi r20,lo8(.LC3)
 180 0056 5040      		sbci r21,hi8(.LC3)
 181 0058 01F4      		brne .L20
 182 005a E0E0      		ldi r30,lo8(input)
 183 005c F0E0      		ldi r31,hi8(input)
 184 005e A0E0      		ldi r26,lo8(password)
 185 0060 B0E0      		ldi r27,hi8(password)
 186 0062 81E0      		ldi r24,lo8(1)
 187               	.L22:
 188 0064 2191      		ld r18,Z+
 189 0066 9D91      		ld r25,X+
 190 0068 2913      		cpse r18,r25
 191 006a 80E0      		ldi r24,0
 192               	.L21:
 193 006c 90E0      		ldi r25,hi8(input+4)
 194 006e E030      		cpi r30,lo8(input+4)
 195 0070 F907      		cpc r31,r25
 196 0072 01F4      		brne .L22
 197 0074 8111      		cpse r24,__zero_reg__
 198 0076 00C0      		rjmp .L24
 199 0078 1092 0000 		sts inputIndex+1,__zero_reg__
 200 007c 1092 0000 		sts inputIndex,__zero_reg__
 201 0080 2C9A      		sbi 0x5,4
 202 0082 EFE1      		ldi r30,lo8(19999)
 203 0084 FEE4      		ldi r31,hi8(19999)
 204 0086 3197      	1:	sbiw r30,1
 205 0088 01F4      		brne 1b
 206 008a 00C0      		rjmp .
 207 008c 0000      		nop
 208 008e 2C98      		cbi 0x5,4
 209 0090 00C0      		rjmp .L17
 210               	.L20:
 211 0092 F901      		movw r30,r18
 212 0094 E050      		subi r30,lo8(-(input))
 213 0096 F040      		sbci r31,hi8(-(input))
 214 0098 8083      		st Z,r24
 215 009a 2F5F      		subi r18,-1
 216 009c 3F4F      		sbci r19,-1
 217 009e 3093 0000 		sts inputIndex+1,r19
 218 00a2 2093 0000 		sts inputIndex,r18
 219 00a6 1F92      		push __zero_reg__
 220 00a8 8F93      		push r24
 221 00aa 80E0      		ldi r24,lo8(.LC4)
 222 00ac 90E0      		ldi r25,hi8(.LC4)
 223 00ae 9F93      		push r25
 224 00b0 8F93      		push r24
 225 00b2 0E94 0000 		call printf
 226 00b6 0F90      		pop __tmp_reg__
 227 00b8 0F90      		pop __tmp_reg__
 228 00ba 0F90      		pop __tmp_reg__
 229 00bc 0F90      		pop __tmp_reg__
 230 00be 00C0      		rjmp .L17
 231               	.L24:
 232 00c0 82E0      		ldi r24,lo8(2)
 233               	/* epilogue start */
 234 00c2 0895      		ret
 236               		.section	.text.alarmState,"ax",@progbits
 237               	.global	alarmState
 239               	alarmState:
 240               	/* prologue: function */
 241               	/* frame size = 0 */
 242               	/* stack size = 0 */
 243               	.L__stack_usage = 0
 244 0000 2C9A      		sbi 0x5,4
 245 0002 81E0      		ldi r24,lo8(1)
 246               	/* epilogue start */
 247 0004 0895      		ret
 249               		.section	.rodata.__vector_32.str1.1,"aMS",@progbits,1
 250               	.LC5:
 251 0000 2564 0A00 		.string	"%d\n"
 252               	.LC6:
 253 0004 414C 4152 		.string	"ALARM"
 253      4D00 
 254               		.section	.text.__vector_32,"ax",@progbits
 255               	.global	__vector_32
 257               	__vector_32:
 258 0000 1F92      		push r1
 259 0002 0F92      		push r0
 260 0004 0FB6      		in r0,__SREG__
 261 0006 0F92      		push r0
 262 0008 1124      		clr __zero_reg__
 263 000a 0BB6      		in r0,__RAMPZ__
 264 000c 0F92      		push r0
 265 000e 2F93      		push r18
 266 0010 3F93      		push r19
 267 0012 4F93      		push r20
 268 0014 5F93      		push r21
 269 0016 6F93      		push r22
 270 0018 7F93      		push r23
 271 001a 8F93      		push r24
 272 001c 9F93      		push r25
 273 001e AF93      		push r26
 274 0020 BF93      		push r27
 275 0022 EF93      		push r30
 276 0024 FF93      		push r31
 277               	/* prologue: Signal */
 278               	/* frame size = 0 */
 279               	/* stack size = 16 */
 280               	.L__stack_usage = 16
 281 0026 8091 0201 		lds r24,258
 282 002a 90E2      		ldi r25,lo8(32)
 283 002c 8927      		eor r24,r25
 284 002e 8093 0201 		sts 258,r24
 285 0032 1092 9500 		sts 148+1,__zero_reg__
 286 0036 1092 9400 		sts 148,__zero_reg__
 287 003a 8091 0000 		lds r24,seconds
 288 003e 9091 0000 		lds r25,seconds+1
 289 0042 0196      		adiw r24,1
 290 0044 9093 0000 		sts seconds+1,r25
 291 0048 8093 0000 		sts seconds,r24
 292 004c 9F93      		push r25
 293 004e 8F93      		push r24
 294 0050 80E0      		ldi r24,lo8(.LC5)
 295 0052 90E0      		ldi r25,hi8(.LC5)
 296 0054 9F93      		push r25
 297 0056 8F93      		push r24
 298 0058 0E94 0000 		call printf
 299 005c 0F90      		pop __tmp_reg__
 300 005e 0F90      		pop __tmp_reg__
 301 0060 0F90      		pop __tmp_reg__
 302 0062 0F90      		pop __tmp_reg__
 303 0064 8091 0000 		lds r24,seconds
 304 0068 9091 0000 		lds r25,seconds+1
 305 006c 0A97      		sbiw r24,10
 306 006e 04F0      		brlt .L30
 307 0070 80E0      		ldi r24,lo8(.LC6)
 308 0072 90E0      		ldi r25,hi8(.LC6)
 309 0074 9F93      		push r25
 310 0076 8F93      		push r24
 311 0078 0E94 0000 		call printf
 312 007c 0F90      		pop __tmp_reg__
 313 007e 0F90      		pop __tmp_reg__
 314               	.L32:
 315 0080 0E94 0000 		call alarmState
 316 0084 00C0      		rjmp .L32
 317               	.L30:
 318               	/* epilogue start */
 319 0086 FF91      		pop r31
 320 0088 EF91      		pop r30
 321 008a BF91      		pop r27
 322 008c AF91      		pop r26
 323 008e 9F91      		pop r25
 324 0090 8F91      		pop r24
 325 0092 7F91      		pop r23
 326 0094 6F91      		pop r22
 327 0096 5F91      		pop r21
 328 0098 4F91      		pop r20
 329 009a 3F91      		pop r19
 330 009c 2F91      		pop r18
 331 009e 0F90      		pop r0
 332 00a0 0BBE      		out __RAMPZ__,r0
 333 00a2 0F90      		pop r0
 334 00a4 0FBE      		out __SREG__,r0
 335 00a6 0F90      		pop r0
 336 00a8 1F90      		pop r1
 337 00aa 1895      		reti
 339               		.section	.rodata.main.str1.1,"aMS",@progbits,1
 340               	.LC7:
 341 0000 2564 00   		.string	"%d"
 342               		.section	.text.startup.main,"ax",@progbits
 343               	.global	main
 345               	main:
 346               	/* prologue: function */
 347               	/* frame size = 0 */
 348               	/* stack size = 0 */
 349               	.L__stack_usage = 0
 350 0000 1092 C500 		sts 197,__zero_reg__
 351 0004 80E1      		ldi r24,lo8(16)
 352 0006 8093 C400 		sts 196,r24
 353 000a 8091 C100 		lds r24,193
 354 000e 8861      		ori r24,lo8(24)
 355 0010 8093 C100 		sts 193,r24
 356 0014 8091 C200 		lds r24,194
 357 0018 8E60      		ori r24,lo8(14)
 358 001a 8093 C200 		sts 194,r24
 359 001e 80E0      		ldi r24,lo8(uart_output)
 360 0020 90E0      		ldi r25,hi8(uart_output)
 361 0022 9093 0000 		sts __iob+2+1,r25
 362 0026 8093 0000 		sts __iob+2,r24
 363 002a 80E0      		ldi r24,lo8(uart_input)
 364 002c 90E0      		ldi r25,hi8(uart_input)
 365 002e 9093 0000 		sts __iob+1,r25
 366 0032 8093 0000 		sts __iob,r24
 367 0036 0E94 0000 		call KEYPAD_Init
 368 003a 249A      		sbi 0x4,4
 369 003c 8091 0101 		lds r24,257
 370 0040 8064      		ori r24,lo8(64)
 371 0042 8093 0101 		sts 257,r24
 372 0046 8091 0101 		lds r24,257
 373 004a 8062      		ori r24,lo8(32)
 374 004c 8093 0101 		sts 257,r24
 375 0050 0A9A      		sbi 0x1,2
 376 0052 84B1      		in r24,0x4
 377 0054 8760      		ori r24,lo8(7)
 378 0056 84B9      		out 0x4,r24
 379 0058 8CB5      		in r24,0x2c
 380 005a 8065      		ori r24,lo8(80)
 381 005c 8CBD      		out 0x2c,r24
 382 005e 8CB5      		in r24,0x2c
 383 0060 8160      		ori r24,lo8(1)
 384 0062 8CBD      		out 0x2c,r24
 385 0064 C0E0      		ldi r28,0
 386 0066 00E0      		ldi r16,lo8(.LC7)
 387 0068 10E0      		ldi r17,hi8(.LC7)
 388 006a 80E0      		ldi r24,lo8(input)
 389 006c E82E      		mov r14,r24
 390 006e 80E0      		ldi r24,hi8(input)
 391 0070 F82E      		mov r15,r24
 392 0072 D4E0      		ldi r29,lo8(4)
 393               	.L40:
 394 0074 1F92      		push __zero_reg__
 395 0076 CF93      		push r28
 396 0078 1F93      		push r17
 397 007a 0F93      		push r16
 398 007c 0E94 0000 		call printf
 399 0080 0F90      		pop __tmp_reg__
 400 0082 0F90      		pop __tmp_reg__
 401 0084 0F90      		pop __tmp_reg__
 402 0086 0F90      		pop __tmp_reg__
 403 0088 C230      		cpi r28,lo8(2)
 404 008a 01F0      		breq .L35
 405 008c 00F4      		brsh .L36
 406 008e C111      		cpse r28,__zero_reg__
 407 0090 00C0      		rjmp .L44
 408 0092 0E94 0000 		call armedState
 409               	.L45:
 410 0096 C82F      		mov r28,r24
 411 0098 00C0      		rjmp .L40
 412               	.L36:
 413 009a C330      		cpi r28,lo8(3)
 414 009c 01F4      		brne .L40
 415 009e 0E94 0000 		call alarmState
 416 00a2 00C0      		rjmp .L45
 417               	.L44:
 418 00a4 0E94 0000 		call timerState
 419 00a8 00C0      		rjmp .L45
 420               	.L35:
 421 00aa 8091 9100 		lds r24,145
 422 00ae 1092 9100 		sts 145,__zero_reg__
 423 00b2 F701      		movw r30,r14
 424 00b4 8D2F      		mov r24,r29
 425               		0:
 426 00b6 1192      		st Z+,__zero_reg__
 427 00b8 8A95      		dec r24
 428 00ba 01F4      		brne 0b
 429 00bc 1092 0000 		sts inputIndex+1,__zero_reg__
 430 00c0 1092 0000 		sts inputIndex,__zero_reg__
 431 00c4 8091 0201 		lds r24,258
 432 00c8 8064      		ori r24,lo8(64)
 433 00ca 8093 0201 		sts 258,r24
 434 00ce 8091 0201 		lds r24,258
 435 00d2 8F7D      		andi r24,lo8(-33)
 436 00d4 8093 0201 		sts 258,r24
 437 00d8 2C98      		cbi 0x5,4
 438               	.L42:
 439 00da 0E94 0000 		call KEYPAD_GetKey
 440 00de 8134      		cpi r24,lo8(65)
 441 00e0 01F4      		brne .L42
 442 00e2 8091 0201 		lds r24,258
 443 00e6 8F7B      		andi r24,lo8(-65)
 444 00e8 8093 0201 		sts 258,r24
 445 00ec 1092 0000 		sts seconds+1,__zero_reg__
 446 00f0 1092 0000 		sts seconds,__zero_reg__
 447 00f4 C0E0      		ldi r28,0
 448 00f6 00C0      		rjmp .L40
 450               	.global	uart_input
 451               		.section	.data.uart_input,"aw"
 454               	uart_input:
 455 0000 0000 00   		.zero	3
 456 0003 01        		.byte	1
 457 0004 0000 0000 		.zero	4
 458 0008 0000      		.word	0
 459 000a 0000      		.word	gs(USART_Receive)
 460 000c 0000      		.word	0
 461               	.global	uart_output
 462               		.section	.data.uart_output,"aw"
 465               	uart_output:
 466 0000 0000 00   		.zero	3
 467 0003 02        		.byte	2
 468 0004 0000 0000 		.zero	4
 469 0008 0000      		.word	gs(USART_Transmit)
 470 000a 0000      		.word	0
 471 000c 0000      		.word	0
 472               	.global	inputIndex
 473               		.section	.bss.inputIndex,"aw",@nobits
 476               	inputIndex:
 477 0000 0000      		.zero	2
 478               	.global	input
 479               		.section	.bss.input,"aw",@nobits
 482               	input:
 483 0000 0000 0000 		.zero	4
 484               	.global	password
 485               		.section	.data.password,"aw"
 488               	password:
 489 0000 3132 3334 		.ascii	"1234"
 490               	.global	seconds
 491               		.section	.bss.seconds,"aw",@nobits
 494               	seconds:
 495 0000 0000      		.zero	2
 496               		.ident	"GCC: (GNU) 13.2.0"
 497               	.global __do_copy_data
 498               	.global __do_clear_bss
DEFINED SYMBOLS
                            *ABS*:00000000 main.c
     /tmp/ccF8erhj.s:2      *ABS*:0000003e __SP_H__
     /tmp/ccF8erhj.s:3      *ABS*:0000003d __SP_L__
     /tmp/ccF8erhj.s:4      *ABS*:0000003f __SREG__
     /tmp/ccF8erhj.s:5      *ABS*:0000003b __RAMPZ__
     /tmp/ccF8erhj.s:6      *ABS*:00000000 __tmp_reg__
     /tmp/ccF8erhj.s:7      *ABS*:00000001 __zero_reg__
     /tmp/ccF8erhj.s:11     .text.USART_Transmit:00000000 USART_Transmit
     /tmp/ccF8erhj.s:26     .text.USART_Receive:00000000 USART_Receive
     /tmp/ccF8erhj.s:49     .text.armedState:00000000 armedState
     /tmp/ccF8erhj.s:89     .text.armedState:00000046 L0
     /tmp/ccF8erhj.s:139    .text.timerState:00000000 timerState
     /tmp/ccF8erhj.s:154    .text.timerState:0000001c L0
     /tmp/ccF8erhj.s:476    .bss.inputIndex:00000000 inputIndex
     /tmp/ccF8erhj.s:482    .bss.input:00000000 input
     /tmp/ccF8erhj.s:488    .data.password:00000000 password
     /tmp/ccF8erhj.s:206    .text.timerState:0000008c L0
     /tmp/ccF8erhj.s:239    .text.alarmState:00000000 alarmState
     /tmp/ccF8erhj.s:257    .text.__vector_32:00000000 __vector_32
     /tmp/ccF8erhj.s:494    .bss.seconds:00000000 seconds
     /tmp/ccF8erhj.s:345    .text.startup.main:00000000 main
     /tmp/ccF8erhj.s:465    .data.uart_output:00000000 uart_output
     /tmp/ccF8erhj.s:454    .data.uart_input:00000000 uart_input
     /tmp/ccF8erhj.s:16     .text.USART_Transmit:00000000 .L2
     /tmp/ccF8erhj.s:31     .text.USART_Receive:00000000 .L6
     /tmp/ccF8erhj.s:65     .text.armedState:00000014 .L10
     /tmp/ccF8erhj.s:92     .text.armedState:0000004a .L15
     /tmp/ccF8erhj.s:85     .text.armedState:0000003c .L11
     /tmp/ccF8erhj.s:62     .text.armedState:00000010 .L12
     /tmp/ccF8erhj.s:170    .text.timerState:00000046 .L17
     /tmp/ccF8erhj.s:152    .text.timerState:00000016 .L12
     /tmp/ccF8erhj.s:173    .text.timerState:0000004a .L18
     /tmp/ccF8erhj.s:210    .text.timerState:00000092 .L20
     /tmp/ccF8erhj.s:187    .text.timerState:00000064 .L22
     /tmp/ccF8erhj.s:231    .text.timerState:000000c0 .L24
     /tmp/ccF8erhj.s:204    .text.timerState:00000086 .L13
     /tmp/ccF8erhj.s:317    .text.__vector_32:00000086 .L30
     /tmp/ccF8erhj.s:314    .text.__vector_32:00000080 .L32
     /tmp/ccF8erhj.s:420    .text.startup.main:000000aa .L35
     /tmp/ccF8erhj.s:412    .text.startup.main:0000009a .L36
     /tmp/ccF8erhj.s:417    .text.startup.main:000000a4 .L44
     /tmp/ccF8erhj.s:393    .text.startup.main:00000074 .L40
     /tmp/ccF8erhj.s:409    .text.startup.main:00000096 .L45
     /tmp/ccF8erhj.s:425    .text.startup.main:000000b6 .L01
     /tmp/ccF8erhj.s:438    .text.startup.main:000000da .L42

UNDEFINED SYMBOLS
printf
KEYPAD_GetKey
__iob
KEYPAD_Init
__do_copy_data
__do_clear_bss
