   1               		.file	"main.c"
   2               	__SP_H__ = 0x3e
   3               	__SP_L__ = 0x3d
   4               	__SREG__ = 0x3f
   5               	__RAMPZ__ = 0x3b
   6               	__tmp_reg__ = 0
   7               	__zero_reg__ = 1
   8               		.text
   9               		.section	.text.USART_Transmit,"ax",@progbits
  11               	USART_Transmit:
  12               	/* prologue: function */
  13               	/* frame size = 0 */
  14               	/* stack size = 0 */
  15               	.L__stack_usage = 0
  16               	.L2:
  17 0000 9091 C000 		lds r25,192
  18 0004 95FF      		sbrs r25,5
  19 0006 00C0      		rjmp .L2
  20 0008 8093 C600 		sts 198,r24
  21               	/* epilogue start */
  22 000c 0895      		ret
  24               		.section	.text.USART_Receive,"ax",@progbits
  26               	USART_Receive:
  27               	/* prologue: function */
  28               	/* frame size = 0 */
  29               	/* stack size = 0 */
  30               	.L__stack_usage = 0
  31               	.L6:
  32 0000 8091 C000 		lds r24,192
  33 0004 85FF      		sbrs r24,5
  34 0006 00C0      		rjmp .L6
  35 0008 8091 C600 		lds r24,198
  36               	/* epilogue start */
  37 000c 0895      		ret
  39               		.section	.rodata.armedState.str1.1,"aMS",@progbits,1
  40               	.LC0:
  41 0000 3000      		.string	"0"
  42               	.LC1:
  43 0002 2575 0A00 		.string	"%u\n"
  44               	.LC2:
  45 0006 5469 6D65 		.string	"Timer started"
  45      7220 7374 
  45      6172 7465 
  45      6400 
  46               		.section	.text.armedState,"ax",@progbits
  47               	.global	armedState
  49               	armedState:
  50 0000 0F93      		push r16
  51 0002 1F93      		push r17
  52 0004 CF93      		push r28
  53 0006 DF93      		push r29
  54               	/* prologue: function */
  55               	/* frame size = 0 */
  56               	/* stack size = 4 */
  57               	.L__stack_usage = 4
  58 0008 C0E0      		ldi r28,lo8(.LC0)
  59 000a D0E0      		ldi r29,hi8(.LC0)
  60 000c 00E0      		ldi r16,lo8(.LC1)
  61 000e 10E0      		ldi r17,hi8(.LC1)
  62               	.L12:
  63 0010 2898      		cbi 0x5,0
  64 0012 CEBD      		out 0x2e,r28
  65               	.L10:
  66 0014 0DB4      		in __tmp_reg__,0x2d
  67 0016 07FE      		sbrs __tmp_reg__,7
  68 0018 00C0      		rjmp .L10
  69 001a DEB5      		in r29,0x2e
  70 001c 1F92      		push __zero_reg__
  71 001e DF93      		push r29
  72 0020 1F93      		push r17
  73 0022 0F93      		push r16
  74 0024 0E94 0000 		call printf
  75 0028 289A      		sbi 0x5,0
  76 002a 0F90      		pop __tmp_reg__
  77 002c 0F90      		pop __tmp_reg__
  78 002e 0F90      		pop __tmp_reg__
  79 0030 0F90      		pop __tmp_reg__
  80 0032 D430      		cpi r29,lo8(4)
  81 0034 01F0      		breq .L15
  82 0036 2FEF      		ldi r18,lo8(3199999)
  83 0038 83ED      		ldi r24,hi8(3199999)
  84 003a 90E3      		ldi r25,hlo8(3199999)
  85 003c 2150      	1:	subi r18,1
  86 003e 8040      		sbci r24,0
  87 0040 9040      		sbci r25,0
  88 0042 01F4      		brne 1b
  89 0044 00C0      		rjmp .
  90 0046 0000      		nop
  91 0048 00C0      		rjmp .L12
  92               	.L15:
  93 004a 6B9A      		sbi 0xd,3
  94               	/* #APP */
  95               	 ;  119 "main.c" 1
  96 004c 7894      		sei
  97               	 ;  0 "" 2
  98               	/* #NOAPP */
  99 004e 1092 9000 		sts 144,__zero_reg__
 100 0052 1092 9100 		sts 145,__zero_reg__
 101 0056 1092 9500 		sts 148+1,__zero_reg__
 102 005a 1092 9400 		sts 148,__zero_reg__
 103 005e 88E0      		ldi r24,lo8(8)
 104 0060 9DE3      		ldi r25,lo8(61)
 105 0062 9093 9900 		sts 152+1,r25
 106 0066 8093 9800 		sts 152,r24
 107 006a 8091 9100 		lds r24,145
 108 006e 8560      		ori r24,lo8(5)
 109 0070 8093 9100 		sts 145,r24
 110 0074 8091 7100 		lds r24,113
 111 0078 8260      		ori r24,lo8(2)
 112 007a 8093 7100 		sts 113,r24
 113 007e 8091 0201 		lds r24,258
 114 0082 8062      		ori r24,lo8(32)
 115 0084 8093 0201 		sts 258,r24
 116 0088 80E0      		ldi r24,lo8(.LC2)
 117 008a 90E0      		ldi r25,hi8(.LC2)
 118 008c 9F93      		push r25
 119 008e 8F93      		push r24
 120 0090 0E94 0000 		call printf
 121 0094 0F90      		pop __tmp_reg__
 122 0096 0F90      		pop __tmp_reg__
 123 0098 81E0      		ldi r24,lo8(1)
 124               	/* epilogue start */
 125 009a DF91      		pop r29
 126 009c CF91      		pop r28
 127 009e 1F91      		pop r17
 128 00a0 0F91      		pop r16
 129 00a2 0895      		ret
 131               		.section	.rodata.timerState.str1.1,"aMS",@progbits,1
 132               	.LC3:
 133 0000 7072 6573 		.string	"pressed: %c\n"
 133      7365 643A 
 133      2025 630A 
 133      00
 134               	.LC4:
 135 000d 6261 636B 		.string	"backspace, index:%d"
 135      7370 6163 
 135      652C 2069 
 135      6E64 6578 
 135      3A25 6400 
 136               	.LC5:
 137 0021 496E 7075 		.string	"Inputindex too low! (%d) reset\n"
 137      7469 6E64 
 137      6578 2074 
 137      6F6F 206C 
 137      6F77 2120 
 138               	.LC6:
 139 0041 6368 6563 		.string	"checking input"
 139      6B69 6E67 
 139      2069 6E70 
 139      7574 00
 140               	.LC7:
 141 0050 5752 4F4E 		.string	"WRONG PASSWORD"
 141      4720 5041 
 141      5353 574F 
 141      5244 00
 142               	.LC8:
 143 005f 4D61 7820 		.string	"Max input index, reset."
 143      696E 7075 
 143      7420 696E 
 143      6465 782C 
 143      2072 6573 
 144               	.LC9:
 145 0077 2564 00   		.string	"%d"
 146               		.section	.text.timerState,"ax",@progbits
 147               	.global	timerState
 149               	timerState:
 150 0000 CF93      		push r28
 151               	/* prologue: function */
 152               	/* frame size = 0 */
 153               	/* stack size = 1 */
 154               	.L__stack_usage = 1
 155 0002 0E94 0000 		call KEYPAD_GetKey
 156 0006 C82F      		mov r28,r24
 157 0008 8115      		cp r24, __zero_reg__
 158 000a 01F0      		breq .L17
 159 000c 8091 0201 		lds r24,258
 160 0010 8064      		ori r24,lo8(64)
 161 0012 8093 0201 		sts 258,r24
 162 0016 8FE1      		ldi r24,lo8(19999)
 163 0018 9EE4      		ldi r25,hi8(19999)
 164 001a 0197      	1:	sbiw r24,1
 165 001c 01F4      		brne 1b
 166 001e 00C0      		rjmp .
 167 0020 0000      		nop
 168 0022 8091 0201 		lds r24,258
 169 0026 8F7B      		andi r24,lo8(-65)
 170 0028 8093 0201 		sts 258,r24
 171 002c 1F92      		push __zero_reg__
 172 002e CF93      		push r28
 173 0030 80E0      		ldi r24,lo8(.LC3)
 174 0032 90E0      		ldi r25,hi8(.LC3)
 175 0034 9F93      		push r25
 176 0036 8F93      		push r24
 177 0038 0E94 0000 		call printf
 178 003c 0F90      		pop __tmp_reg__
 179 003e 0F90      		pop __tmp_reg__
 180 0040 0F90      		pop __tmp_reg__
 181 0042 0F90      		pop __tmp_reg__
 182 0044 2091 0000 		lds r18,inputIndex
 183 0048 3091 0000 		lds r19,inputIndex+1
 184 004c CA32      		cpi r28,lo8(42)
 185 004e 01F4      		brne .L18
 186 0050 1216      		cp __zero_reg__,r18
 187 0052 1306      		cpc __zero_reg__,r19
 188 0054 04F0      		brlt .+2
 189 0056 00C0      		rjmp .L19
 190 0058 2150      		subi r18,1
 191 005a 3109      		sbc r19,__zero_reg__
 192 005c 3093 0000 		sts inputIndex+1,r19
 193 0060 2093 0000 		sts inputIndex,r18
 194 0064 3F93      		push r19
 195 0066 2F93      		push r18
 196 0068 80E0      		ldi r24,lo8(.LC4)
 197 006a 90E0      		ldi r25,hi8(.LC4)
 198               	.L32:
 199 006c 9F93      		push r25
 200 006e 8F93      		push r24
 201 0070 0E94 0000 		call printf
 202               	.L31:
 203 0074 0F90      		pop __tmp_reg__
 204 0076 0F90      		pop __tmp_reg__
 205 0078 0F90      		pop __tmp_reg__
 206 007a 0F90      		pop __tmp_reg__
 207               	.L17:
 208 007c 81E0      		ldi r24,lo8(1)
 209               	.L16:
 210               	/* epilogue start */
 211 007e CF91      		pop r28
 212 0080 0895      		ret
 213               	.L18:
 214 0082 C332      		cpi r28,lo8(35)
 215 0084 01F4      		brne .L19
 216 0086 2330      		cpi r18,3
 217 0088 3105      		cpc r19,__zero_reg__
 218 008a 04F4      		brge .L21
 219 008c 3F93      		push r19
 220 008e 2F93      		push r18
 221 0090 80E0      		ldi r24,lo8(.LC5)
 222 0092 90E0      		ldi r25,hi8(.LC5)
 223 0094 9F93      		push r25
 224 0096 8F93      		push r24
 225 0098 0E94 0000 		call printf
 226 009c 2C9A      		sbi 0x5,4
 227 009e 8FE3      		ldi r24,lo8(-25537)
 228 00a0 9CE9      		ldi r25,hi8(-25537)
 229 00a2 0197      	1:	sbiw r24,1
 230 00a4 01F4      		brne 1b
 231 00a6 00C0      		rjmp .
 232 00a8 0000      		nop
 233 00aa 2C98      		cbi 0x5,4
 234 00ac 1092 0000 		sts inputIndex+1,__zero_reg__
 235 00b0 1092 0000 		sts inputIndex,__zero_reg__
 236 00b4 00C0      		rjmp .L31
 237               	.L21:
 238 00b6 80E0      		ldi r24,lo8(.LC6)
 239 00b8 90E0      		ldi r25,hi8(.LC6)
 240 00ba 0E94 0000 		call puts
 241 00be E0E0      		ldi r30,lo8(input)
 242 00c0 F0E0      		ldi r31,hi8(input)
 243 00c2 A0E0      		ldi r26,lo8(password)
 244 00c4 B0E0      		ldi r27,hi8(password)
 245 00c6 81E0      		ldi r24,lo8(1)
 246               	.L23:
 247 00c8 2191      		ld r18,Z+
 248 00ca 9D91      		ld r25,X+
 249 00cc 2913      		cpse r18,r25
 250 00ce 80E0      		ldi r24,0
 251               	.L22:
 252 00d0 90E0      		ldi r25,hi8(input+4)
 253 00d2 E030      		cpi r30,lo8(input+4)
 254 00d4 F907      		cpc r31,r25
 255 00d6 01F4      		brne .L23
 256 00d8 8111      		cpse r24,__zero_reg__
 257 00da 00C0      		rjmp .L26
 258 00dc 80E0      		ldi r24,lo8(.LC7)
 259 00de 90E0      		ldi r25,hi8(.LC7)
 260 00e0 0E94 0000 		call puts
 261 00e4 1092 0000 		sts inputIndex+1,__zero_reg__
 262 00e8 1092 0000 		sts inputIndex,__zero_reg__
 263 00ec 2C9A      		sbi 0x5,4
 264 00ee 8FE3      		ldi r24,lo8(-25537)
 265 00f0 9CE9      		ldi r25,hi8(-25537)
 266 00f2 0197      	1:	sbiw r24,1
 267 00f4 01F4      		brne 1b
 268 00f6 00C0      		rjmp .
 269 00f8 0000      		nop
 270 00fa 2C98      		cbi 0x5,4
 271 00fc 00C0      		rjmp .L17
 272               	.L19:
 273 00fe 2430      		cpi r18,4
 274 0100 3105      		cpc r19,__zero_reg__
 275 0102 04F0      		brlt .L24
 276 0104 80E0      		ldi r24,lo8(.LC8)
 277 0106 90E0      		ldi r25,hi8(.LC8)
 278 0108 0E94 0000 		call puts
 279 010c 2C9A      		sbi 0x5,4
 280 010e 8FE3      		ldi r24,lo8(-25537)
 281 0110 9CE9      		ldi r25,hi8(-25537)
 282 0112 0197      	1:	sbiw r24,1
 283 0114 01F4      		brne 1b
 284 0116 00C0      		rjmp .
 285 0118 0000      		nop
 286 011a 2C98      		cbi 0x5,4
 287 011c 1092 0000 		sts inputIndex+1,__zero_reg__
 288 0120 1092 0000 		sts inputIndex,__zero_reg__
 289 0124 00C0      		rjmp .L17
 290               	.L24:
 291 0126 F901      		movw r30,r18
 292 0128 E050      		subi r30,lo8(-(input))
 293 012a F040      		sbci r31,hi8(-(input))
 294 012c C083      		st Z,r28
 295 012e 2F5F      		subi r18,-1
 296 0130 3F4F      		sbci r19,-1
 297 0132 3093 0000 		sts inputIndex+1,r19
 298 0136 2093 0000 		sts inputIndex,r18
 299 013a 3F93      		push r19
 300 013c 2F93      		push r18
 301 013e 80E0      		ldi r24,lo8(.LC9)
 302 0140 90E0      		ldi r25,hi8(.LC9)
 303 0142 00C0      		rjmp .L32
 304               	.L26:
 305 0144 82E0      		ldi r24,lo8(2)
 306 0146 00C0      		rjmp .L16
 308               		.section	.text.alarmState,"ax",@progbits
 309               	.global	alarmState
 311               	alarmState:
 312               	/* prologue: function */
 313               	/* frame size = 0 */
 314               	/* stack size = 0 */
 315               	.L__stack_usage = 0
 316 0000 2C9A      		sbi 0x5,4
 317 0002 81E0      		ldi r24,lo8(1)
 318               	/* epilogue start */
 319 0004 0895      		ret
 321               		.section	.rodata.__vector_32.str1.1,"aMS",@progbits,1
 322               	.LC10:
 323 0000 414C 4152 		.string	"ALARM"
 323      4D00 
 324               		.section	.text.__vector_32,"ax",@progbits
 325               	.global	__vector_32
 327               	__vector_32:
 328 0000 1F92      		push r1
 329 0002 0F92      		push r0
 330 0004 0FB6      		in r0,__SREG__
 331 0006 0F92      		push r0
 332 0008 1124      		clr __zero_reg__
 333 000a 0BB6      		in r0,__RAMPZ__
 334 000c 0F92      		push r0
 335 000e 2F93      		push r18
 336 0010 3F93      		push r19
 337 0012 4F93      		push r20
 338 0014 5F93      		push r21
 339 0016 6F93      		push r22
 340 0018 7F93      		push r23
 341 001a 8F93      		push r24
 342 001c 9F93      		push r25
 343 001e AF93      		push r26
 344 0020 BF93      		push r27
 345 0022 EF93      		push r30
 346 0024 FF93      		push r31
 347               	/* prologue: Signal */
 348               	/* frame size = 0 */
 349               	/* stack size = 16 */
 350               	.L__stack_usage = 16
 351 0026 8091 0201 		lds r24,258
 352 002a 90E2      		ldi r25,lo8(32)
 353 002c 8927      		eor r24,r25
 354 002e 8093 0201 		sts 258,r24
 355 0032 1092 9500 		sts 148+1,__zero_reg__
 356 0036 1092 9400 		sts 148,__zero_reg__
 357 003a 8091 0000 		lds r24,seconds
 358 003e 9091 0000 		lds r25,seconds+1
 359 0042 0196      		adiw r24,1
 360 0044 9093 0000 		sts seconds+1,r25
 361 0048 8093 0000 		sts seconds,r24
 362 004c 0A97      		sbiw r24,10
 363 004e 04F0      		brlt .L34
 364 0050 80E0      		ldi r24,lo8(.LC10)
 365 0052 90E0      		ldi r25,hi8(.LC10)
 366 0054 9F93      		push r25
 367 0056 8F93      		push r24
 368 0058 0E94 0000 		call printf
 369 005c 0E94 0000 		call alarmState
 370 0060 8091 9100 		lds r24,145
 371 0064 1092 9100 		sts 145,__zero_reg__
 372 0068 0F90      		pop __tmp_reg__
 373 006a 0F90      		pop __tmp_reg__
 374               	.L34:
 375               	/* epilogue start */
 376 006c FF91      		pop r31
 377 006e EF91      		pop r30
 378 0070 BF91      		pop r27
 379 0072 AF91      		pop r26
 380 0074 9F91      		pop r25
 381 0076 8F91      		pop r24
 382 0078 7F91      		pop r23
 383 007a 6F91      		pop r22
 384 007c 5F91      		pop r21
 385 007e 4F91      		pop r20
 386 0080 3F91      		pop r19
 387 0082 2F91      		pop r18
 388 0084 0F90      		pop r0
 389 0086 0BBE      		out __RAMPZ__,r0
 390 0088 0F90      		pop r0
 391 008a 0FBE      		out __SREG__,r0
 392 008c 0F90      		pop r0
 393 008e 1F90      		pop r1
 394 0090 1895      		reti
 396               		.section	.text.startup.main,"ax",@progbits
 397               	.global	main
 399               	main:
 400               	/* prologue: function */
 401               	/* frame size = 0 */
 402               	/* stack size = 0 */
 403               	.L__stack_usage = 0
 404 0000 1092 C500 		sts 197,__zero_reg__
 405 0004 80E1      		ldi r24,lo8(16)
 406 0006 8093 C400 		sts 196,r24
 407 000a 8091 C100 		lds r24,193
 408 000e 8861      		ori r24,lo8(24)
 409 0010 8093 C100 		sts 193,r24
 410 0014 8091 C200 		lds r24,194
 411 0018 8E60      		ori r24,lo8(14)
 412 001a 8093 C200 		sts 194,r24
 413 001e 80E0      		ldi r24,lo8(uart_output)
 414 0020 90E0      		ldi r25,hi8(uart_output)
 415 0022 9093 0000 		sts __iob+2+1,r25
 416 0026 8093 0000 		sts __iob+2,r24
 417 002a 80E0      		ldi r24,lo8(uart_input)
 418 002c 90E0      		ldi r25,hi8(uart_input)
 419 002e 9093 0000 		sts __iob+1,r25
 420 0032 8093 0000 		sts __iob,r24
 421 0036 0E94 0000 		call KEYPAD_Init
 422 003a 249A      		sbi 0x4,4
 423 003c 8091 0101 		lds r24,257
 424 0040 8064      		ori r24,lo8(64)
 425 0042 8093 0101 		sts 257,r24
 426 0046 8091 0101 		lds r24,257
 427 004a 8062      		ori r24,lo8(32)
 428 004c 8093 0101 		sts 257,r24
 429 0050 0A9A      		sbi 0x1,2
 430 0052 84B1      		in r24,0x4
 431 0054 8760      		ori r24,lo8(7)
 432 0056 84B9      		out 0x4,r24
 433 0058 8CB5      		in r24,0x2c
 434 005a 8065      		ori r24,lo8(80)
 435 005c 8CBD      		out 0x2c,r24
 436 005e 8CB5      		in r24,0x2c
 437 0060 8160      		ori r24,lo8(1)
 438 0062 8CBD      		out 0x2c,r24
 439 0064 80E0      		ldi r24,0
 440 0066 C0E0      		ldi r28,lo8(input)
 441 0068 D0E0      		ldi r29,hi8(input)
 442 006a 14E0      		ldi r17,lo8(4)
 443               	.L37:
 444 006c 8230      		cpi r24,lo8(2)
 445 006e 01F0      		breq .L38
 446               	.L43:
 447 0070 8330      		cpi r24,lo8(3)
 448 0072 00F4      		brsh .L39
 449 0074 8111      		cpse r24,__zero_reg__
 450 0076 00C0      		rjmp .L47
 451               	.L40:
 452 0078 0E94 0000 		call armedState
 453 007c 00C0      		rjmp .L37
 454               	.L39:
 455 007e 8330      		cpi r24,lo8(3)
 456 0080 01F4      		brne .L43
 457 0082 0E94 0000 		call alarmState
 458 0086 00C0      		rjmp .L37
 459               	.L47:
 460 0088 0E94 0000 		call timerState
 461 008c 00C0      		rjmp .L37
 462               	.L38:
 463 008e 8091 9100 		lds r24,145
 464 0092 1092 9100 		sts 145,__zero_reg__
 465 0096 FE01      		movw r30,r28
 466 0098 812F      		mov r24,r17
 467               		0:
 468 009a 1192      		st Z+,__zero_reg__
 469 009c 8A95      		dec r24
 470 009e 01F4      		brne 0b
 471 00a0 1092 0000 		sts inputIndex+1,__zero_reg__
 472 00a4 1092 0000 		sts inputIndex,__zero_reg__
 473 00a8 8091 0201 		lds r24,258
 474 00ac 8064      		ori r24,lo8(64)
 475 00ae 8093 0201 		sts 258,r24
 476 00b2 8091 0201 		lds r24,258
 477 00b6 8F7D      		andi r24,lo8(-33)
 478 00b8 8093 0201 		sts 258,r24
 479 00bc 2C98      		cbi 0x5,4
 480               	.L45:
 481 00be 0E94 0000 		call KEYPAD_GetKey
 482 00c2 8134      		cpi r24,lo8(65)
 483 00c4 01F4      		brne .L45
 484 00c6 8091 0201 		lds r24,258
 485 00ca 8F7B      		andi r24,lo8(-65)
 486 00cc 8093 0201 		sts 258,r24
 487 00d0 1092 0000 		sts seconds+1,__zero_reg__
 488 00d4 1092 0000 		sts seconds,__zero_reg__
 489 00d8 00C0      		rjmp .L40
 491               	.global	uart_input
 492               		.section	.data.uart_input,"aw"
 495               	uart_input:
 496 0000 0000 00   		.zero	3
 497 0003 01        		.byte	1
 498 0004 0000 0000 		.zero	4
 499 0008 0000      		.word	0
 500 000a 0000      		.word	gs(USART_Receive)
 501 000c 0000      		.word	0
 502               	.global	uart_output
 503               		.section	.data.uart_output,"aw"
 506               	uart_output:
 507 0000 0000 00   		.zero	3
 508 0003 02        		.byte	2
 509 0004 0000 0000 		.zero	4
 510 0008 0000      		.word	gs(USART_Transmit)
 511 000a 0000      		.word	0
 512 000c 0000      		.word	0
 513               	.global	inputIndex
 514               		.section	.bss.inputIndex,"aw",@nobits
 517               	inputIndex:
 518 0000 0000      		.zero	2
 519               	.global	input
 520               		.section	.bss.input,"aw",@nobits
 523               	input:
 524 0000 0000 0000 		.zero	4
 525               	.global	password
 526               		.section	.data.password,"aw"
 529               	password:
 530 0000 3132 3334 		.ascii	"1234"
 531               	.global	seconds
 532               		.section	.bss.seconds,"aw",@nobits
 535               	seconds:
 536 0000 0000      		.zero	2
 537               		.ident	"GCC: (GNU) 13.2.0"
 538               	.global __do_copy_data
 539               	.global __do_clear_bss
DEFINED SYMBOLS
                            *ABS*:00000000 main.c
     /tmp/cclr9djq.s:2      *ABS*:0000003e __SP_H__
     /tmp/cclr9djq.s:3      *ABS*:0000003d __SP_L__
     /tmp/cclr9djq.s:4      *ABS*:0000003f __SREG__
     /tmp/cclr9djq.s:5      *ABS*:0000003b __RAMPZ__
     /tmp/cclr9djq.s:6      *ABS*:00000000 __tmp_reg__
     /tmp/cclr9djq.s:7      *ABS*:00000001 __zero_reg__
     /tmp/cclr9djq.s:11     .text.USART_Transmit:00000000 USART_Transmit
     /tmp/cclr9djq.s:26     .text.USART_Receive:00000000 USART_Receive
     /tmp/cclr9djq.s:49     .text.armedState:00000000 armedState
     /tmp/cclr9djq.s:89     .text.armedState:00000046 L0
     /tmp/cclr9djq.s:149    .text.timerState:00000000 timerState
     /tmp/cclr9djq.s:166    .text.timerState:00000020 L0
     /tmp/cclr9djq.s:517    .bss.inputIndex:00000000 inputIndex
     /tmp/cclr9djq.s:188    .text.timerState:00000056 L0
     /tmp/cclr9djq.s:231    .text.timerState:000000a8 L0
     /tmp/cclr9djq.s:523    .bss.input:00000000 input
     /tmp/cclr9djq.s:529    .data.password:00000000 password
     /tmp/cclr9djq.s:268    .text.timerState:000000f8 L0
     /tmp/cclr9djq.s:284    .text.timerState:00000118 L0
     /tmp/cclr9djq.s:311    .text.alarmState:00000000 alarmState
     /tmp/cclr9djq.s:327    .text.__vector_32:00000000 __vector_32
     /tmp/cclr9djq.s:535    .bss.seconds:00000000 seconds
     /tmp/cclr9djq.s:399    .text.startup.main:00000000 main
     /tmp/cclr9djq.s:506    .data.uart_output:00000000 uart_output
     /tmp/cclr9djq.s:495    .data.uart_input:00000000 uart_input
     /tmp/cclr9djq.s:16     .text.USART_Transmit:00000000 .L2
     /tmp/cclr9djq.s:31     .text.USART_Receive:00000000 .L6
     /tmp/cclr9djq.s:65     .text.armedState:00000014 .L10
     /tmp/cclr9djq.s:92     .text.armedState:0000004a .L15
     /tmp/cclr9djq.s:85     .text.armedState:0000003c .L11
     /tmp/cclr9djq.s:62     .text.armedState:00000010 .L12
     /tmp/cclr9djq.s:207    .text.timerState:0000007c .L17
     /tmp/cclr9djq.s:164    .text.timerState:0000001a .L12
     /tmp/cclr9djq.s:213    .text.timerState:00000082 .L18
     /tmp/cclr9djq.s:272    .text.timerState:000000fe .L19
     /tmp/cclr9djq.s:237    .text.timerState:000000b6 .L21
     /tmp/cclr9djq.s:229    .text.timerState:000000a2 .L13
     /tmp/cclr9djq.s:202    .text.timerState:00000074 .L31
     /tmp/cclr9djq.s:246    .text.timerState:000000c8 .L23
     /tmp/cclr9djq.s:304    .text.timerState:00000144 .L26
     /tmp/cclr9djq.s:266    .text.timerState:000000f2 .L14
     /tmp/cclr9djq.s:290    .text.timerState:00000126 .L24
     /tmp/cclr9djq.s:282    .text.timerState:00000112 .L15
     /tmp/cclr9djq.s:198    .text.timerState:0000006c .L32
     /tmp/cclr9djq.s:209    .text.timerState:0000007e .L16
     /tmp/cclr9djq.s:374    .text.__vector_32:0000006c .L34
     /tmp/cclr9djq.s:462    .text.startup.main:0000008e .L38
     /tmp/cclr9djq.s:454    .text.startup.main:0000007e .L39
     /tmp/cclr9djq.s:459    .text.startup.main:00000088 .L47
     /tmp/cclr9djq.s:443    .text.startup.main:0000006c .L37
     /tmp/cclr9djq.s:446    .text.startup.main:00000070 .L43
     /tmp/cclr9djq.s:467    .text.startup.main:0000009a .L01
     /tmp/cclr9djq.s:480    .text.startup.main:000000be .L45
     /tmp/cclr9djq.s:451    .text.startup.main:00000078 .L40

UNDEFINED SYMBOLS
printf
KEYPAD_GetKey
puts
__iob
KEYPAD_Init
__do_copy_data
__do_clear_bss
